;
; File generated by cc65 v 2.19 - Git 4dfbccf
;
	.fopt		compiler,"cc65 v 2.19 - Git 4dfbccf"
	.setcpu		"6502"
	.smart		on
	.autoimport	on
	.case		on
	.debuginfo	off
	.importzp	sp, sreg, regsave, regbank
	.importzp	tmp1, tmp2, tmp3, tmp4, ptr1, ptr2, ptr3, ptr4
	.macpack	longbranch
	.forceimport	__STARTUP__
	.import		_pal_col
	.import		_ppu_wait_nmi
	.import		_ppu_off
	.import		_ppu_on_all
	.import		_music_play
	.import		_bank_bg
	.import		_vram_adr
	.import		_vram_unrle
	.import		_pal_fade_to
	.export		_pal_one
	.export		_senbenstudio
	.export		_temp0
	.export		_pal_senben_studio
	.export		_main

.segment	"DATA"

_temp0:
	.byte	$00

.segment	"RODATA"

_senbenstudio:
	.byte	$01
	.byte	$24
	.byte	$01
	.byte	$FE
	.byte	$24
	.byte	$01
	.byte	$AB
	.byte	$1C
	.byte	$0E
	.byte	$17
	.byte	$0B
	.byte	$0E
	.byte	$17
	.byte	$24
	.byte	$01
	.byte	$0E
	.byte	$2B
	.byte	$01
	.byte	$1F
	.byte	$24
	.byte	$01
	.byte	$0F
	.byte	$1C
	.byte	$1D
	.byte	$1E
	.byte	$0D
	.byte	$12
	.byte	$18
	.byte	$24
	.byte	$01
	.byte	$FE
	.byte	$24
	.byte	$01
	.byte	$CA
	.byte	$00
	.byte	$01
	.byte	$3E
	.byte	$00
	.byte	$01
	.byte	$00
_pal_senben_studio:
	.byte	$0F
	.byte	$05
	.byte	$13
	.byte	$05

; ---------------------------------------------------------------
; void __near__ pal_one (const unsigned char *pal, unsigned char index_from)
; ---------------------------------------------------------------

.segment	"CODE"

.proc	_pal_one: near

.segment	"CODE"

;
; void pal_one(const u8 pal[4], u8 index_from){
;
	jsr     pusha
;
; pal_col(index_from, pal[0]);
;
	ldy     #$00
	ldx     #$00
	lda     (sp),y
	jsr     pusha
	ldy     #$03
	jsr     ldaxysp
	ldy     #$00
	jsr     ldauidx
	jsr     _pal_col
;
; pal_col(index_from+1, pal[1]);
;
	ldy     #$00
	ldx     #$00
	lda     (sp),y
	jsr     incax1
	ldx     #$00
	jsr     pusha
	ldy     #$03
	jsr     ldaxysp
	jsr     incax1
	ldy     #$00
	jsr     ldauidx
	jsr     _pal_col
;
; pal_col(index_from+2, pal[2]);
;
	ldy     #$00
	ldx     #$00
	lda     (sp),y
	jsr     incax2
	ldx     #$00
	jsr     pusha
	ldy     #$03
	jsr     ldaxysp
	jsr     incax2
	ldy     #$00
	jsr     ldauidx
	jsr     _pal_col
;
; pal_col(index_from+3, pal[3]);
;
	ldy     #$00
	ldx     #$00
	lda     (sp),y
	jsr     incax3
	ldx     #$00
	jsr     pusha
	ldy     #$03
	jsr     ldaxysp
	jsr     incax3
	ldy     #$00
	jsr     ldauidx
	jsr     _pal_col
;
; }
;
	jsr     incsp3
	rts

.endproc

; ---------------------------------------------------------------
; void __near__ main (void)
; ---------------------------------------------------------------

.segment	"CODE"

.proc	_main: near

.segment	"CODE"

;
; ppu_off();
;
	jsr     _ppu_off
;
; bank_bg(1);
;
	ldx     #$00
	lda     #$01
	jsr     _bank_bg
;
; vram_adr(NAMETABLE_A);
;
	ldx     #$20
	lda     #$00
	jsr     _vram_adr
;
; vram_unrle(senbenstudio);
;
	lda     #<(_senbenstudio)
	ldx     #>(_senbenstudio)
	jsr     _vram_unrle
;
; pal_one(pal_senben_studio, 0);
;
	lda     #<(_pal_senben_studio)
	ldx     #>(_pal_senben_studio)
	jsr     pushax
	ldx     #$00
	lda     #$00
	jsr     _pal_one
;
; ppu_wait_nmi();
;
	jsr     _ppu_wait_nmi
;
; pal_fade_to(0, 4);
;
	ldx     #$00
	lda     #$00
	jsr     pusha
	ldx     #$00
	lda     #$04
	jsr     _pal_fade_to
;
; ppu_on_all();
;
	jsr     _ppu_on_all
;
; music_play(0);
;
	ldx     #$00
	lda     #$00
	jsr     _music_play
;
; temp0=30;
;
	ldx     #$00
	lda     #$1E
	sta     _temp0
;
; while(temp0>0)ppu_wait_nmi();
;
	jmp     L0004
L0002:	jsr     _ppu_wait_nmi
L0004:	ldx     #$00
	lda     _temp0
	cmp     #$00
	jsr     boolne
	jne     L0002
;
; pal_fade_to(4, 0);
;
	ldx     #$00
	lda     #$04
	jsr     pusha
	ldx     #$00
	lda     #$00
	jsr     _pal_fade_to
;
; while (1){
;
	jmp     L0007
;
; ppu_wait_nmi();
;
L0005:	jsr     _ppu_wait_nmi
;
; while (1){
;
L0007:	jmp     L0005
;
; }
;
	rts

.endproc

